target datalayout = "e-m:e-p270:32:32-p271:32:32-p272:64:64-i64:64-i128:128-f80:128-n8:16:32:64-S128"
target triple = "x86_64-pc-linux-gnu"

%"class.std::shared_ptr" = type { %"class.std::__shared_ptr" }
%"class.std::__shared_ptr" = type { ptr, %"class.std::__shared_count" }
%"class.std::__shared_count" = type { ptr }
%"class.open_spiel::State.base" = type <{ ptr, %"class.std::shared_ptr", i32, i32, %"class.std::vector", i32 }>
%"class.std::vector" = type { %"struct.std::_Vector_base" }
%"struct.std::_Vector_base" = type { %"struct.std::_Vector_base<open_spiel::State::PlayerAction, std::allocator<open_spiel::State::PlayerAction>>::_Vector_impl" }
%"struct.std::_Vector_base<open_spiel::State::PlayerAction, std::allocator<open_spiel::State::PlayerAction>>::_Vector_impl" = type { %"struct.std::_Vector_base<open_spiel::State::PlayerAction, std::allocator<open_spiel::State::PlayerAction>>::_Vector_impl_data" }
%"struct.std::_Vector_base<open_spiel::State::PlayerAction, std::allocator<open_spiel::State::PlayerAction>>::_Vector_impl_data" = type { ptr, ptr, ptr }
%"struct.std::array.24" = type { [8 x i32] }
%"class.open_spiel::tiny_bridge::TinyBridgePlayState" = type { %"class.open_spiel::State.base", i32, i32, %"struct.std::array.24", %"struct.std::array.26", %"class.std::vector.27" }
%"struct.std::array.26" = type { [2 x i32] }
%"class.std::vector.27" = type { %"struct.std::_Vector_base.28" }
%"struct.std::_Vector_base.28" = type { %"struct.std::_Vector_base<std::pair<open_spiel::tiny_bridge::Seat, int>, std::allocator<std::pair<open_spiel::tiny_bridge::Seat, int>>>::_Vector_impl" }
%"struct.std::_Vector_base<std::pair<open_spiel::tiny_bridge::Seat, int>, std::allocator<std::pair<open_spiel::tiny_bridge::Seat, int>>>::_Vector_impl" = type { %"struct.std::_Vector_base<std::pair<open_spiel::tiny_bridge::Seat, int>, std::allocator<std::pair<open_spiel::tiny_bridge::Seat, int>>>::_Vector_impl_data" }
%"struct.std::_Vector_base<std::pair<open_spiel::tiny_bridge::Seat, int>, std::allocator<std::pair<open_spiel::tiny_bridge::Seat, int>>>::_Vector_impl_data" = type { ptr, ptr, ptr }

; Function Attrs: mustprogress nounwind uwtable
define linkonce_odr noundef i64 @_ZNKSt6vectorISt4pairIN10open_spiel11tiny_bridge4SeatEiESaIS4_EE4sizeEv(ptr noundef nonnull align 8 dereferenceable(24) %0) #5 comdat align 2 {
  %2 = alloca ptr, align 8
  store ptr %0, ptr %2, align 8
  %3 = load ptr, ptr %2, align 8
  %4 = getelementptr inbounds nuw %"struct.std::_Vector_base.28", ptr %3, i32 0, i32 0
  %5 = getelementptr inbounds nuw %"struct.std::_Vector_base<std::pair<open_spiel::tiny_bridge::Seat, int>, std::allocator<std::pair<open_spiel::tiny_bridge::Seat, int>>>::_Vector_impl_data", ptr %4, i32 0, i32 1
  %6 = load ptr, ptr %5, align 8
  %7 = getelementptr inbounds nuw %"struct.std::_Vector_base.28", ptr %3, i32 0, i32 0
  %8 = getelementptr inbounds nuw %"struct.std::_Vector_base<std::pair<open_spiel::tiny_bridge::Seat, int>, std::allocator<std::pair<open_spiel::tiny_bridge::Seat, int>>>::_Vector_impl_data", ptr %7, i32 0, i32 0
  %9 = load ptr, ptr %8, align 8
  %10 = ptrtoint ptr %6 to i64
  %11 = ptrtoint ptr %9 to i64
  %12 = sub i64 %10, %11
  %13 = sdiv exact i64 %12, 8
  ret i64 %13
}

; Function Attrs: mustprogress nounwind uwtable
define noundef zeroext i1 @_ZNK10open_spiel11tiny_bridge19TinyBridgePlayState10IsTerminalEv(ptr noundef nonnull align 8 dereferenceable(136) %0) unnamed_addr #5 align 2 {
  %2 = alloca ptr, align 8
  store ptr %0, ptr %2, align 8
  %3 = load ptr, ptr %2, align 8
  %4 = getelementptr inbounds nuw %"class.open_spiel::tiny_bridge::TinyBridgePlayState", ptr %3, i32 0, i32 5
  %5 = call noundef i64 @_ZNKSt6vectorISt4pairIN10open_spiel11tiny_bridge4SeatEiESaIS4_EE4sizeEv(ptr noundef nonnull align 8 dereferenceable(24) %4) #3
  %6 = icmp eq i64 %5, 8
  ret i1 %6
}